target datalayout = "e-m:e-p270:32:32-p271:32:32-p272:64:64-i64:64-i128:128-f80:128-n8:16:32:64-S128"
target triple = "x86_64-pc-linux-gnu"

%class.QCache = type { %"struct.QCache<unsigned int, QList<QString>>::Chain", %"struct.QHashPrivate::Data", i64, i64 }
%"struct.QCache<unsigned int, QList<QString>>::Chain" = type { ptr, ptr }
%"struct.QHashPrivate::Data" = type { %"class.QtPrivate::RefCount", i64, i64, i64, ptr }
%"class.QtPrivate::RefCount" = type { %class.QBasicAtomicInteger }
%class.QBasicAtomicInteger = type { %"struct.std::atomic" }
%"struct.std::atomic" = type { %"struct.std::__atomic_base" }
%"struct.std::__atomic_base" = type { i32 }
%class.QMap = type { %"class.QtPrivate::QExplicitlySharedDataPointerV2" }
%"class.QtPrivate::QExplicitlySharedDataPointerV2" = type { ptr }
%struct.epan_column_info = type { ptr, i32, ptr, ptr, ptr, %struct.col_expr_t, i32, ptr }
%struct.col_expr_t = type { ptr, ptr }
%"struct.QHashPrivate::Span" = type <{ [128 x i8], ptr, i8, i8, [6 x i8] }>

@_ZN16PacketListRecord15col_text_cache_E = global %class.QCache zeroinitializer, align 8
@_ZN16PacketListRecord13cinfo_column_E = global %class.QMap zeroinitializer, align 8

; Function Attrs: mustprogress nounwind uwtable
define linkonce_odr void @_ZN12QHashPrivate4SpanIN6QCacheIj5QListI7QStringEE4NodeEED2Ev(ptr noundef nonnull align 8 dereferenceable(138) %0) unnamed_addr #1 comdat align 2 {
  %2 = alloca ptr, align 8
  store ptr %0, ptr %2, align 8
  %3 = load ptr, ptr %2, align 8
  call void @_ZN12QHashPrivate4SpanIN6QCacheIj5QListI7QStringEE4NodeEE8freeDataEv(ptr noundef nonnull align 8 dereferenceable(138) %3) #2
  ret void
}

; Function Attrs: noreturn nounwind uwtable
define linkonce_odr hidden void @__clang_call_terminate(ptr noundef %0) #8 comdat {
  %2 = call ptr @__cxa_begin_catch(ptr %0) #2
  call void @_ZSt9terminatev() #17
  unreachable
}

; Function Attrs: mustprogress nounwind uwtable
define linkonce_odr void @_ZN12QHashPrivate4DataIN6QCacheIj5QListI7QStringEE4NodeEE5clearEv(ptr noundef nonnull align 8 dereferenceable(40) %0) #1 comdat align 2 {
  %2 = alloca ptr, align 8
  store ptr %0, ptr %2, align 8
  %3 = load ptr, ptr %2, align 8
  %4 = getelementptr inbounds %"struct.QHashPrivate::Data", ptr %3, i32 0, i32 4
  %5 = load ptr, ptr %4, align 8
  %6 = icmp eq ptr %5, null
  br i1 %6, label %17, label %7

7:                                                ; preds = %1
  %8 = getelementptr inbounds i8, ptr %5, i64 -8
  %9 = load i64, ptr %8, align 8
  %10 = getelementptr inbounds %"struct.QHashPrivate::Span", ptr %5, i64 %9
  %11 = icmp eq ptr %5, %10
  br i1 %11, label %16, label %12

12:                                               ; preds = %12, %7
  %13 = phi ptr [ %10, %7 ], [ %14, %12 ]
  %14 = getelementptr inbounds %"struct.QHashPrivate::Span", ptr %13, i64 -1
  call void @_ZN12QHashPrivate4SpanIN6QCacheIj5QListI7QStringEE4NodeEED2Ev(ptr noundef nonnull align 8 dereferenceable(138) %14) #2
  %15 = icmp eq ptr %14, %5
  br i1 %15, label %16, label %12

16:                                               ; preds = %12, %7
  call void @_ZdaPv(ptr noundef %8) #18
  br label %17

17:                                               ; preds = %16, %1
  %18 = getelementptr inbounds %"struct.QHashPrivate::Data", ptr %3, i32 0, i32 4
  store ptr null, ptr %18, align 8
  %19 = getelementptr inbounds %"struct.QHashPrivate::Data", ptr %3, i32 0, i32 1
  store i64 0, ptr %19, align 8
  %20 = getelementptr inbounds %"struct.QHashPrivate::Data", ptr %3, i32 0, i32 2
  store i64 0, ptr %20, align 8
  ret void
}

; Function Attrs: mustprogress nounwind uwtable
define linkonce_odr void @_ZN6QCacheIj5QListI7QStringEE5clearEv(ptr noundef nonnull align 8 dereferenceable(72) %0) #1 comdat align 2 personality ptr @__gxx_personality_v0 {
  %2 = alloca ptr, align 8
  store ptr %0, ptr %2, align 8
  %3 = load ptr, ptr %2, align 8
  %4 = getelementptr inbounds %class.QCache, ptr %3, i32 0, i32 1
  invoke void @_ZN12QHashPrivate4DataIN6QCacheIj5QListI7QStringEE4NodeEE5clearEv(ptr noundef nonnull align 8 dereferenceable(40) %4)
          to label %5 unwind label %13

5:                                                ; preds = %1
  %6 = getelementptr inbounds %class.QCache, ptr %3, i32 0, i32 3
  store i64 0, ptr %6, align 8
  %7 = getelementptr inbounds %class.QCache, ptr %3, i32 0, i32 0
  %8 = getelementptr inbounds %class.QCache, ptr %3, i32 0, i32 0
  %9 = getelementptr inbounds %"struct.QCache<unsigned int, QList<QString>>::Chain", ptr %8, i32 0, i32 1
  store ptr %7, ptr %9, align 8
  %10 = getelementptr inbounds %class.QCache, ptr %3, i32 0, i32 0
  %11 = getelementptr inbounds %class.QCache, ptr %3, i32 0, i32 0
  %12 = getelementptr inbounds %"struct.QCache<unsigned int, QList<QString>>::Chain", ptr %11, i32 0, i32 0
  store ptr %10, ptr %12, align 8
  ret void

13:                                               ; preds = %1
  %14 = landingpad { ptr, i32 }
          catch ptr null
  %15 = extractvalue { ptr, i32 } %14, 0
  call void @__clang_call_terminate(ptr %15) #17
  unreachable
}

; Function Attrs: mustprogress nounwind uwtable
define linkonce_odr void @_ZN16PacketListRecord20invalidateAllRecordsEv() #1 comdat align 2 {
  call void @_ZN6QCacheIj5QListI7QStringEE5clearEv(ptr noundef nonnull align 8 dereferenceable(72) @_ZN16PacketListRecord15col_text_cache_E) #2
  ret void
}

; Function Attrs: mustprogress uwtable
define void @_ZN16PacketListRecord12resetColumnsEP16epan_column_info(ptr noundef %0) #4 align 2 {
  %2 = alloca ptr, align 8
  %3 = alloca i32, align 4
  %4 = alloca i32, align 4
  store ptr %0, ptr %2, align 8
  call void @_ZN16PacketListRecord20invalidateAllRecordsEv()
  %5 = load ptr, ptr %2, align 8
  %6 = icmp ne ptr %5, null
  br i1 %6, label %8, label %7

7:                                                ; preds = %1
  br label %29

8:                                                ; preds = %1
  call void @_ZN4QMapIiiE5clearEv(ptr noundef nonnull align 8 dereferenceable(8) @_ZN16PacketListRecord13cinfo_column_E)
  store i32 0, ptr %3, align 4
  store i32 0, ptr %4, align 4
  br label %9

9:                                                ; preds = %26, %8
  %10 = load i32, ptr %3, align 4
  %11 = load ptr, ptr %2, align 8
  %12 = getelementptr inbounds %struct.epan_column_info, ptr %11, i32 0, i32 1
  %13 = load i32, ptr %12, align 8
  %14 = icmp slt i32 %10, %13
  br i1 %14, label %15, label %29

15:                                               ; preds = %9
  %16 = load ptr, ptr %2, align 8
  %17 = load i32, ptr %3, align 4
  %18 = call i32 @col_based_on_frame_data(ptr noundef %16, i32 noundef %17)
  %19 = icmp ne i32 %18, 0
  br i1 %19, label %25, label %20

20:                                               ; preds = %15
  %21 = load i32, ptr %4, align 4
  %22 = call noundef nonnull align 4 dereferenceable(4) ptr @_ZN4QMapIiiEixERKi(ptr noundef nonnull align 8 dereferenceable(8) @_ZN16PacketListRecord13cinfo_column_E, ptr noundef nonnull align 4 dereferenceable(4) %3)
  store i32 %21, ptr %22, align 4
  %23 = load i32, ptr %4, align 4
  %24 = add i32 %23, 1
  store i32 %24, ptr %4, align 4
  br label %25

25:                                               ; preds = %20, %15
  br label %26

26:                                               ; preds = %25
  %27 = load i32, ptr %3, align 4
  %28 = add i32 %27, 1
  store i32 %28, ptr %3, align 4
  br label %9, !llvm.loop !4

29:                                               ; preds = %9, %7
  ret void
}