; Function Attrs: mustprogress uwtable
define void @_ZN16PacketListRecord12resetColumnsEP16epan_column_info(ptr noundef %0) local_unnamed_addr #5 align 2 personality ptr @__gxx_personality_v0 {
  %2 = alloca i32, align 4
  %3 = load ptr, ptr getelementptr inbounds (%class.QCache, ptr @_ZN16PacketListRecord15col_text_cache_E, i64 0, i32 1, i32 4), align 8
  %4 = icmp eq ptr %3, null
  br i1 %4, label %_ZN16PacketListRecord20invalidateAllRecordsEv.exit, label %5

5:                                                ; preds = %1
  %6 = getelementptr inbounds i8, ptr %3, i64 -8
  %7 = load i64, ptr %6, align 8
  %8 = icmp eq i64 %7, 0
  br i1 %8, label %.loopexit.i.i.i, label %.preheader.preheader.i.i.i

.preheader.preheader.i.i.i:                       ; preds = %5
  %9 = getelementptr inbounds %"struct.QHashPrivate::Span", ptr %3, i64 %7
  br label %.preheader.i.i.i

.preheader.i.i.i:                                 ; preds = %.preheader.i.i.i, %.preheader.preheader.i.i.i
  %10 = phi ptr [ %11, %.preheader.i.i.i ], [ %9, %.preheader.preheader.i.i.i ]
  %11 = getelementptr inbounds i8, ptr %10, i64 -144
  tail call void @_ZN12QHashPrivate4SpanIN6QCacheIj5QListI7QStringEE4NodeEE8freeDataEv(ptr noundef nonnull align 8 dereferenceable(138) %11) #20
  %12 = icmp eq ptr %11, %3
  br i1 %12, label %.loopexit.i.i.i, label %.preheader.i.i.i

.loopexit.i.i.i:                                  ; preds = %.preheader.i.i.i, %5
  tail call void @_ZdaPv(ptr noundef nonnull %6) #21
  br label %_ZN16PacketListRecord20invalidateAllRecordsEv.exit

_ZN16PacketListRecord20invalidateAllRecordsEv.exit: ; preds = %1, %.loopexit.i.i.i
  store ptr null, ptr getelementptr inbounds (%class.QCache, ptr @_ZN16PacketListRecord15col_text_cache_E, i64 0, i32 1, i32 4), align 8
  tail call void @llvm.memset.p0.i64(ptr noundef nonnull align 8 dereferenceable(16) getelementptr inbounds (%class.QCache, ptr @_ZN16PacketListRecord15col_text_cache_E, i64 0, i32 1, i32 1), i8 0, i64 16, i1 false)
  store i64 0, ptr getelementptr inbounds (%class.QCache, ptr @_ZN16PacketListRecord15col_text_cache_E, i64 0, i32 3), align 8
  store ptr @_ZN16PacketListRecord15col_text_cache_E, ptr getelementptr inbounds (%class.QCache, ptr @_ZN16PacketListRecord15col_text_cache_E, i64 0, i32 0, i32 1), align 8
  store ptr @_ZN16PacketListRecord15col_text_cache_E, ptr @_ZN16PacketListRecord15col_text_cache_E, align 8
  %.not = icmp eq ptr %0, null
  br i1 %.not, label %.loopexit, label %13

13:                                               ; preds = %_ZN16PacketListRecord20invalidateAllRecordsEv.exit
  tail call void @_ZN4QMapIiiE5clearEv(ptr noundef nonnull align 8 dereferenceable(8) @_ZN16PacketListRecord13cinfo_column_E)
  %14 = getelementptr inbounds i8, ptr %0, i64 8
  store i32 0, ptr %2, align 4
  %15 = load i32, ptr %14, align 8
  %16 = icmp sgt i32 %15, 0
  br i1 %16, label %.lr.ph, label %.loopexit

.lr.ph:                                           ; preds = %13, %21
  %.08 = phi i32 [ %.1, %21 ], [ 0, %13 ]
  %storemerge7 = phi i32 [ %23, %21 ], [ 0, %13 ]
  %17 = call i32 @col_based_on_frame_data(ptr noundef nonnull %0, i32 noundef %storemerge7)
  %.not6 = icmp eq i32 %17, 0
  br i1 %.not6, label %18, label %21

18:                                               ; preds = %.lr.ph
  %19 = call noundef nonnull align 4 dereferenceable(4) ptr @_ZN4QMapIiiEixERKi(ptr noundef nonnull align 8 dereferenceable(8) @_ZN16PacketListRecord13cinfo_column_E, ptr noundef nonnull align 4 dereferenceable(4) %2)
  store i32 %.08, ptr %19, align 4
  %20 = add i32 %.08, 1
  br label %21

21:                                               ; preds = %.lr.ph, %18
  %.1 = phi i32 [ %.08, %.lr.ph ], [ %20, %18 ]
  %22 = load i32, ptr %2, align 4
  %23 = add i32 %22, 1
  store i32 %23, ptr %2, align 4
  %24 = load i32, ptr %14, align 8
  %25 = icmp slt i32 %23, %24
  br i1 %25, label %.lr.ph, label %.loopexit, !llvm.loop !4

.loopexit:                                        ; preds = %21, %13, %_ZN16PacketListRecord20invalidateAllRecordsEv.exit
  ret void
}